target datalayout = "e-m:e-p270:32:32-p271:32:32-p272:64:64-i64:64-i128:128-f80:128-n8:16:32:64-S128"
target triple = "x86_64-pc-linux-gnu"

%struct.Curl_multi = type { i32, i32, i32, %struct.Curl_llist, %struct.Curl_llist, %struct.Curl_llist, %struct.Curl_llist, i64, ptr, ptr, ptr, ptr, %struct.Curl_hash, ptr, %struct.PslCache, ptr, ptr, i64, ptr, i64, ptr, i64, %struct.Curl_hash, %struct.Curl_hash, %struct.cpool, i64, i64, ptr, ptr, i64, %struct.curltime, [2 x i32], i32, i32, i8, i8 }
%struct.Curl_llist = type { ptr, ptr, ptr, i64 }
%struct.PslCache = type { ptr, i64, i8 }
%struct.Curl_hash = type { ptr, ptr, ptr, ptr, i64, i64 }
%struct.cpool = type { %struct.Curl_hash, i64, i64, i64, %struct.curltime, %struct.Curl_llist, ptr, ptr, ptr, ptr, i8 }
%struct.curltime = type { i64, i32 }

; Function Attrs: nounwind uwtable
define internal void @set_in_callback(ptr noundef %0, i1 noundef zeroext %1) #0 {
  %3 = alloca ptr, align 8
  %4 = alloca i8, align 1
  store ptr %0, ptr %3, align 8, !tbaa !9
  %5 = zext i1 %1 to i8
  store i8 %5, ptr %4, align 1, !tbaa !118
  %6 = load i8, ptr %4, align 1, !tbaa !118, !range !120, !noundef !121
  %7 = trunc i8 %6 to i1
  %8 = zext i1 %7 to i32
  %9 = load ptr, ptr %3, align 8, !tbaa !9
  %10 = getelementptr inbounds nuw %struct.Curl_multi, ptr %9, i32 0, i32 35
  %11 = trunc i32 %8 to i8
  %12 = load i8, ptr %10, align 1
  %13 = and i8 %11, 1
  %14 = shl i8 %13, 2
  %15 = and i8 %12, -5
  %16 = or i8 %15, %14
  store i8 %16, ptr %10, align 1
  ret void
}

; Function Attrs: nounwind uwtable
define hidden i32 @Curl_update_timer(ptr noundef %0) #0 {
  %2 = alloca i32, align 4
  %3 = alloca ptr, align 8
  %4 = alloca %struct.curltime, align 8
  %5 = alloca i64, align 8
  %6 = alloca i32, align 4
  %7 = alloca i8, align 1
  %8 = alloca i32, align 4
  store ptr %0, ptr %3, align 8, !tbaa !9
  call void @llvm.lifetime.start.p0(i64 16, ptr %4) #9
  call void @llvm.lifetime.start.p0(i64 8, ptr %5) #9
  call void @llvm.lifetime.start.p0(i64 4, ptr %6) #9
  call void @llvm.lifetime.start.p0(i64 1, ptr %7) #9
  store i8 0, ptr %7, align 1, !tbaa !118
  %9 = load ptr, ptr %3, align 8, !tbaa !9
  %10 = getelementptr inbounds nuw %struct.Curl_multi, ptr %9, i32 0, i32 27
  %11 = load ptr, ptr %10, align 8, !tbaa !119
  %12 = icmp ne ptr %11, null
  br i1 %12, label %13, label %21

13:                                               ; preds = %1
  %14 = load ptr, ptr %3, align 8, !tbaa !9
  %15 = getelementptr inbounds nuw %struct.Curl_multi, ptr %14, i32 0, i32 35
  %16 = load i8, ptr %15, align 1
  %17 = lshr i8 %16, 4
  %18 = and i8 %17, 1
  %19 = zext i8 %18 to i32
  %20 = icmp ne i32 %19, 0
  br i1 %20, label %21, label %22

21:                                               ; preds = %13, %1
  store i32 0, ptr %2, align 4
  store i32 1, ptr %8, align 4
  br label %94

22:                                               ; preds = %13
  %23 = load ptr, ptr %3, align 8, !tbaa !9
  %24 = call i32 @multi_timeout(ptr noundef %23, ptr noundef %4, ptr noundef %5)
  %25 = icmp ne i32 %24, 0
  br i1 %25, label %26, label %27

26:                                               ; preds = %22
  store i32 0, ptr %2, align 4
  store i32 1, ptr %8, align 4
  br label %94

27:                                               ; preds = %22
  %28 = load i64, ptr %5, align 8, !tbaa !3
  %29 = icmp slt i64 %28, 0
  br i1 %29, label %30, label %36

30:                                               ; preds = %27
  %31 = load ptr, ptr %3, align 8, !tbaa !9
  %32 = getelementptr inbounds nuw %struct.Curl_multi, ptr %31, i32 0, i32 29
  %33 = load i64, ptr %32, align 8, !tbaa !29
  %34 = icmp slt i64 %33, 0
  br i1 %34, label %35, label %36

35:                                               ; preds = %30
  br label %64

36:                                               ; preds = %30, %27
  %37 = load i64, ptr %5, align 8, !tbaa !3
  %38 = icmp slt i64 %37, 0
  br i1 %38, label %39, label %40

39:                                               ; preds = %36
  store i64 -1, ptr %5, align 8, !tbaa !3
  store i8 1, ptr %7, align 1, !tbaa !118
  br label %63

40:                                               ; preds = %36
  %41 = load ptr, ptr %3, align 8, !tbaa !9
  %42 = getelementptr inbounds nuw %struct.Curl_multi, ptr %41, i32 0, i32 29
  %43 = load i64, ptr %42, align 8, !tbaa !29
  %44 = icmp slt i64 %43, 0
  br i1 %44, label %45, label %46

45:                                               ; preds = %40
  store i8 1, ptr %7, align 1, !tbaa !118
  br label %62

46:                                               ; preds = %40
  %47 = load ptr, ptr %3, align 8, !tbaa !9
  %48 = getelementptr inbounds nuw %struct.Curl_multi, ptr %47, i32 0, i32 30
  %49 = getelementptr inbounds nuw { i64, i32 }, ptr %48, i32 0, i32 0
  %50 = load i64, ptr %49, align 8
  %51 = getelementptr inbounds nuw { i64, i32 }, ptr %48, i32 0, i32 1
  %52 = load i32, ptr %51, align 8
  %53 = getelementptr inbounds nuw { i64, i32 }, ptr %4, i32 0, i32 0
  %54 = load i64, ptr %53, align 8
  %55 = getelementptr inbounds nuw { i64, i32 }, ptr %4, i32 0, i32 1
  %56 = load i32, ptr %55, align 8
  %57 = call i64 @Curl_timediff_us(i64 %50, i32 %52, i64 %54, i32 %56)
  %58 = icmp ne i64 %57, 0
  br i1 %58, label %59, label %60

59:                                               ; preds = %46
  store i8 1, ptr %7, align 1, !tbaa !118
  br label %61

60:                                               ; preds = %46
  br label %61

61:                                               ; preds = %60, %59
  br label %62

62:                                               ; preds = %61, %45
  br label %63

63:                                               ; preds = %62, %39
  br label %64

64:                                               ; preds = %63, %35
  %65 = load i8, ptr %7, align 1, !tbaa !118, !range !120, !noundef !121
  %66 = trunc i8 %65 to i1
  br i1 %66, label %67, label %93

67:                                               ; preds = %64
  %68 = load ptr, ptr %3, align 8, !tbaa !9
  %69 = getelementptr inbounds nuw %struct.Curl_multi, ptr %68, i32 0, i32 30
  call void @llvm.memcpy.p0.p0.i64(ptr align 8 %69, ptr align 8 %4, i64 16, i1 false), !tbaa.struct !122
  %70 = load i64, ptr %5, align 8, !tbaa !3
  %71 = load ptr, ptr %3, align 8, !tbaa !9
  %72 = getelementptr inbounds nuw %struct.Curl_multi, ptr %71, i32 0, i32 29
  store i64 %70, ptr %72, align 8, !tbaa !29
  %73 = load ptr, ptr %3, align 8, !tbaa !9
  call void @set_in_callback(ptr noundef %73, i1 noundef zeroext true)
  %74 = load ptr, ptr %3, align 8, !tbaa !9
  %75 = getelementptr inbounds nuw %struct.Curl_multi, ptr %74, i32 0, i32 27
  %76 = load ptr, ptr %75, align 8, !tbaa !119
  %77 = load ptr, ptr %3, align 8, !tbaa !9
  %78 = load i64, ptr %5, align 8, !tbaa !3
  %79 = load ptr, ptr %3, align 8, !tbaa !9
  %80 = getelementptr inbounds nuw %struct.Curl_multi, ptr %79, i32 0, i32 28
  %81 = load ptr, ptr %80, align 8, !tbaa !123
  %82 = call i32 %76(ptr noundef %77, i64 noundef %78, ptr noundef %81)
  store i32 %82, ptr %6, align 4, !tbaa !30
  %83 = load ptr, ptr %3, align 8, !tbaa !9
  call void @set_in_callback(ptr noundef %83, i1 noundef zeroext false)
  %84 = load i32, ptr %6, align 4, !tbaa !30
  %85 = icmp eq i32 %84, -1
  br i1 %85, label %86, label %92

86:                                               ; preds = %67
  %87 = load ptr, ptr %3, align 8, !tbaa !9
  %88 = getelementptr inbounds nuw %struct.Curl_multi, ptr %87, i32 0, i32 35
  %89 = load i8, ptr %88, align 1
  %90 = and i8 %89, -17
  %91 = or i8 %90, 16
  store i8 %91, ptr %88, align 1
  store i32 11, ptr %2, align 4
  store i32 1, ptr %8, align 4
  br label %94

92:                                               ; preds = %67
  br label %93

93:                                               ; preds = %92, %64
  store i32 0, ptr %2, align 4
  store i32 1, ptr %8, align 4
  br label %94

94:                                               ; preds = %93, %86, %26, %21
  call void @llvm.lifetime.end.p0(i64 1, ptr %7) #9
  call void @llvm.lifetime.end.p0(i64 4, ptr %6) #9
  call void @llvm.lifetime.end.p0(i64 8, ptr %5) #9
  call void @llvm.lifetime.end.p0(i64 16, ptr %4) #9
  %95 = load i32, ptr %2, align 4
  ret i32 %95
}