; Function Attrs: nounwind uwtable
define hidden range(i32 0, 12) i32 @Curl_update_timer(ptr noundef %0) local_unnamed_addr #0 {
  %2 = alloca %struct.curltime, align 8
  %3 = alloca i64, align 8
  call void @llvm.lifetime.start.p0(i64 16, ptr nonnull %2) #19
  call void @llvm.lifetime.start.p0(i64 8, ptr nonnull %3) #19
  %4 = getelementptr inbounds nuw i8, ptr %0, i64 592
  %5 = load ptr, ptr %4, align 8, !tbaa !114
  %.not = icmp eq ptr %5, null
  br i1 %.not, label %.critedge, label %6

6:                                                ; preds = %1
  %7 = getelementptr inbounds nuw i8, ptr %0, i64 649
  %8 = load i8, ptr %7, align 1
  %9 = and i8 %8, 16
  %.not17 = icmp eq i8 %9, 0
  br i1 %.not17, label %10, label %.critedge

10:                                               ; preds = %6
  call fastcc void @multi_timeout(ptr noundef nonnull %0, ptr noundef %2, ptr noundef nonnull %3)
  %11 = load i64, ptr %3, align 8, !tbaa !115
  %12 = icmp slt i64 %11, 0
  %13 = getelementptr inbounds nuw i8, ptr %0, i64 608
  %14 = load i64, ptr %13, align 8, !tbaa !27
  %15 = icmp slt i64 %14, 0
  br i1 %12, label %16, label %17

16:                                               ; preds = %10
  br i1 %15, label %.critedge, label %.critedge20

17:                                               ; preds = %10
  br i1 %15, label %.critedge20, label %18

18:                                               ; preds = %17
  %19 = getelementptr inbounds nuw i8, ptr %0, i64 616
  %20 = load i64, ptr %19, align 8
  %21 = getelementptr inbounds nuw i8, ptr %0, i64 624
  %22 = load i32, ptr %21, align 8
  %23 = load i64, ptr %2, align 8
  %24 = getelementptr inbounds nuw i8, ptr %2, i64 8
  %25 = load i32, ptr %24, align 8
  %26 = tail call i64 @Curl_timediff_us(i64 %20, i32 %22, i64 %23, i32 %25) #19
  %.not18.not = icmp eq i64 %26, 0
  br i1 %.not18.not, label %.critedge, label %.critedge20

.critedge20:                                      ; preds = %16, %17, %18
  %27 = phi i64 [ %11, %17 ], [ %11, %18 ], [ -1, %16 ]
  %28 = getelementptr inbounds nuw i8, ptr %0, i64 616
  call void @llvm.memcpy.p0.p0.i64(ptr noundef nonnull align 8 dereferenceable(16) %28, ptr noundef nonnull align 8 dereferenceable(16) %2, i64 16, i1 false), !tbaa.struct !116
  %29 = getelementptr inbounds nuw i8, ptr %0, i64 608
  store i64 %27, ptr %29, align 8, !tbaa !27
  %30 = load i8, ptr %7, align 1
  %31 = or i8 %30, 4
  store i8 %31, ptr %7, align 1
  %32 = load ptr, ptr %4, align 8, !tbaa !114
  %33 = getelementptr inbounds nuw i8, ptr %0, i64 600
  %34 = load ptr, ptr %33, align 8, !tbaa !117
  %35 = tail call i32 %32(ptr noundef nonnull %0, i64 noundef %27, ptr noundef %34) #19
  %36 = load i8, ptr %7, align 1
  %37 = and i8 %36, -5
  store i8 %37, ptr %7, align 1
  %38 = icmp eq i32 %35, -1
  br i1 %38, label %39, label %.critedge

39:                                               ; preds = %.critedge20
  %40 = or i8 %37, 16
  store i8 %40, ptr %7, align 1
  br label %.critedge

.critedge:                                        ; preds = %18, %.critedge20, %16, %1, %6, %39
  %.016 = phi i32 [ 11, %39 ], [ 0, %6 ], [ 0, %1 ], [ 0, %16 ], [ 0, %.critedge20 ], [ 0, %18 ]
  call void @llvm.lifetime.end.p0(i64 8, ptr nonnull %3) #19
  call void @llvm.lifetime.end.p0(i64 16, ptr nonnull %2) #19
  ret i32 %.016
}